target datalayout = "e-m:e-p270:32:32-p271:32:32-p272:64:64-i64:64-i128:128-f80:128-n8:16:32:64-S128"
target triple = "x86_64-pc-linux-gnu"

%struct.JNINativeInterface_ = type { ptr, ptr, ptr, ptr, ptr, ptr, ptr, ptr, ptr, ptr, ptr, ptr, ptr, ptr, ptr, ptr, ptr, ptr, ptr, ptr, ptr, ptr, ptr, ptr, ptr, ptr, ptr, ptr, ptr, ptr, ptr, ptr, ptr, ptr, ptr, ptr, ptr, ptr, ptr, ptr, ptr, ptr, ptr, ptr, ptr, ptr, ptr, ptr, ptr, ptr, ptr, ptr, ptr, ptr, ptr, ptr, ptr, ptr, ptr, ptr, ptr, ptr, ptr, ptr, ptr, ptr, ptr, ptr, ptr, ptr, ptr, ptr, ptr, ptr, ptr, ptr, ptr, ptr, ptr, ptr, ptr, ptr, ptr, ptr, ptr, ptr, ptr, ptr, ptr, ptr, ptr, ptr, ptr, ptr, ptr, ptr, ptr, ptr, ptr, ptr, ptr, ptr, ptr, ptr, ptr, ptr, ptr, ptr, ptr, ptr, ptr, ptr, ptr, ptr, ptr, ptr, ptr, ptr, ptr, ptr, ptr, ptr, ptr, ptr, ptr, ptr, ptr, ptr, ptr, ptr, ptr, ptr, ptr, ptr, ptr, ptr, ptr, ptr, ptr, ptr, ptr, ptr, ptr, ptr, ptr, ptr, ptr, ptr, ptr, ptr, ptr, ptr, ptr, ptr, ptr, ptr, ptr, ptr, ptr, ptr, ptr, ptr, ptr, ptr, ptr, ptr, ptr, ptr, ptr, ptr, ptr, ptr, ptr, ptr, ptr, ptr, ptr, ptr, ptr, ptr, ptr, ptr, ptr, ptr, ptr, ptr, ptr, ptr, ptr, ptr, ptr, ptr, ptr, ptr, ptr, ptr, ptr, ptr, ptr, ptr, ptr, ptr, ptr, ptr, ptr, ptr, ptr, ptr, ptr, ptr, ptr, ptr, ptr, ptr, ptr, ptr, ptr, ptr, ptr, ptr, ptr, ptr, ptr, ptr, ptr, ptr, ptr, ptr, ptr, ptr, ptr, ptr, ptr, ptr, ptr }

@.str = private unnamed_addr constant [26 x i8] c"isSafeForJNICalls(jnienv)\00", align 1
@.str.1 = private unnamed_addr constant [64 x i8] c"src/java.instrument/share/native/libinstrument/JavaExceptions.c\00", align 1
@.str.4 = private unnamed_addr constant [18 x i8] c"className != NULL\00", align 1
@.str.5 = private unnamed_addr constant [18 x i8] c"!errorOutstanding\00", align 1
@.str.6 = private unnamed_addr constant [7 x i8] c"<init>\00", align 1
@.str.7 = private unnamed_addr constant [22 x i8] c"(Ljava/lang/String;)V\00", align 1

; Function Attrs: nounwind uwtable
define hidden zeroext i8 @checkForAndClearThrowable(ptr noundef %0) #0 {
  %2 = alloca ptr, align 8
  %3 = alloca i8, align 1
  store ptr %0, ptr %2, align 8
  %4 = load ptr, ptr %2, align 8
  %5 = load ptr, ptr %4, align 8
  %6 = getelementptr inbounds %struct.JNINativeInterface_, ptr %5, i32 0, i32 228
  %7 = load ptr, ptr %6, align 8
  %8 = load ptr, ptr %2, align 8
  %9 = call zeroext i8 %7(ptr noundef %8)
  store i8 %9, ptr %3, align 1
  %10 = load i8, ptr %3, align 1
  %11 = icmp ne i8 %10, 0
  br i1 %11, label %12, label %18

12:                                               ; preds = %1
  %13 = load ptr, ptr %2, align 8
  %14 = load ptr, ptr %13, align 8
  %15 = getelementptr inbounds %struct.JNINativeInterface_, ptr %14, i32 0, i32 17
  %16 = load ptr, ptr %15, align 8
  %17 = load ptr, ptr %2, align 8
  call void %16(ptr noundef %17)
  br label %18

18:                                               ; preds = %12, %1
  %19 = load i8, ptr %3, align 1
  ret i8 %19
}

; Function Attrs: nounwind uwtable
define hidden zeroext i8 @isSafeForJNICalls(ptr noundef %0) #0 {
  %2 = alloca ptr, align 8
  store ptr %0, ptr %2, align 8
  %3 = load ptr, ptr %2, align 8
  %4 = load ptr, ptr %3, align 8
  %5 = getelementptr inbounds %struct.JNINativeInterface_, ptr %4, i32 0, i32 228
  %6 = load ptr, ptr %5, align 8
  %7 = load ptr, ptr %2, align 8
  %8 = call zeroext i8 %6(ptr noundef %7)
  %9 = icmp ne i8 %8, 0
  %10 = xor i1 %9, true
  %11 = zext i1 %10 to i32
  %12 = trunc i32 %11 to i8
  ret i8 %12
}

; Function Attrs: nounwind uwtable
define hidden ptr @createThrowable(ptr noundef %0, ptr noundef %1, ptr noundef %2) #0 {
  %4 = alloca ptr, align 8
  %5 = alloca ptr, align 8
  %6 = alloca ptr, align 8
  %7 = alloca ptr, align 8
  %8 = alloca ptr, align 8
  %9 = alloca ptr, align 8
  %10 = alloca i8, align 1
  store ptr %0, ptr %4, align 8
  store ptr %1, ptr %5, align 8
  store ptr %2, ptr %6, align 8
  store ptr null, ptr %7, align 8
  store ptr null, ptr %8, align 8
  store ptr null, ptr %9, align 8
  store i8 0, ptr %10, align 1
  %11 = load ptr, ptr %5, align 8
  %12 = icmp ne ptr %11, null
  %13 = zext i1 %12 to i32
  %14 = trunc i32 %13 to i8
  call void @JPLISAssertCondition(i8 noundef zeroext %14, ptr noundef @.str.4, ptr noundef @.str.1, i32 noundef 131)
  %15 = load ptr, ptr %4, align 8
  %16 = call zeroext i8 @isSafeForJNICalls(ptr noundef %15)
  call void @JPLISAssertCondition(i8 noundef zeroext %16, ptr noundef @.str, ptr noundef @.str.1, i32 noundef 132)
  %17 = load ptr, ptr %4, align 8
  %18 = load ptr, ptr %17, align 8
  %19 = getelementptr inbounds %struct.JNINativeInterface_, ptr %18, i32 0, i32 6
  %20 = load ptr, ptr %19, align 8
  %21 = load ptr, ptr %4, align 8
  %22 = load ptr, ptr %5, align 8
  %23 = call ptr %20(ptr noundef %21, ptr noundef %22)
  store ptr %23, ptr %9, align 8
  %24 = load ptr, ptr %4, align 8
  %25 = call zeroext i8 @checkForAndClearThrowable(ptr noundef %24)
  store i8 %25, ptr %10, align 1
  %26 = load i8, ptr %10, align 1
  %27 = icmp ne i8 %26, 0
  %28 = xor i1 %27, true
  %29 = zext i1 %28 to i32
  %30 = trunc i32 %29 to i8
  call void @JPLISAssertCondition(i8 noundef zeroext %30, ptr noundef @.str.5, ptr noundef @.str.1, i32 noundef 137)
  %31 = load i8, ptr %10, align 1
  %32 = icmp ne i8 %31, 0
  br i1 %32, label %48, label %33

33:                                               ; preds = %3
  %34 = load ptr, ptr %4, align 8
  %35 = load ptr, ptr %34, align 8
  %36 = getelementptr inbounds %struct.JNINativeInterface_, ptr %35, i32 0, i32 33
  %37 = load ptr, ptr %36, align 8
  %38 = load ptr, ptr %4, align 8
  %39 = load ptr, ptr %9, align 8
  %40 = call ptr %37(ptr noundef %38, ptr noundef %39, ptr noundef @.str.6, ptr noundef @.str.7)
  store ptr %40, ptr %8, align 8
  %41 = load ptr, ptr %4, align 8
  %42 = call zeroext i8 @checkForAndClearThrowable(ptr noundef %41)
  store i8 %42, ptr %10, align 1
  %43 = load i8, ptr %10, align 1
  %44 = icmp ne i8 %43, 0
  %45 = xor i1 %44, true
  %46 = zext i1 %45 to i32
  %47 = trunc i32 %46 to i8
  call void @JPLISAssertCondition(i8 noundef zeroext %47, ptr noundef @.str.5, ptr noundef @.str.1, i32 noundef 145)
  br label %48

48:                                               ; preds = %33, %3
  %49 = load i8, ptr %10, align 1
  %50 = icmp ne i8 %49, 0
  br i1 %50, label %68, label %51

51:                                               ; preds = %48
  %52 = load ptr, ptr %4, align 8
  %53 = load ptr, ptr %52, align 8
  %54 = getelementptr inbounds %struct.JNINativeInterface_, ptr %53, i32 0, i32 28
  %55 = load ptr, ptr %54, align 8
  %56 = load ptr, ptr %4, align 8
  %57 = load ptr, ptr %9, align 8
  %58 = load ptr, ptr %8, align 8
  %59 = load ptr, ptr %6, align 8
  %60 = call ptr (ptr, ptr, ptr, ...) %55(ptr noundef %56, ptr noundef %57, ptr noundef %58, ptr noundef %59)
  store ptr %60, ptr %7, align 8
  %61 = load ptr, ptr %4, align 8
  %62 = call zeroext i8 @checkForAndClearThrowable(ptr noundef %61)
  store i8 %62, ptr %10, align 1
  %63 = load i8, ptr %10, align 1
  %64 = icmp ne i8 %63, 0
  %65 = xor i1 %64, true
  %66 = zext i1 %65 to i32
  %67 = trunc i32 %66 to i8
  call void @JPLISAssertCondition(i8 noundef zeroext %67, ptr noundef @.str.5, ptr noundef @.str.1, i32 noundef 151)
  br label %68

68:                                               ; preds = %51, %48
  %69 = load ptr, ptr %4, align 8
  %70 = call zeroext i8 @isSafeForJNICalls(ptr noundef %69)
  call void @JPLISAssertCondition(i8 noundef zeroext %70, ptr noundef @.str, ptr noundef @.str.1, i32 noundef 154)
  %71 = load ptr, ptr %7, align 8
  ret ptr %71
}