; Function Attrs: nounwind uwtable
define hidden ptr @createThrowable(ptr noundef %0, ptr noundef %1, ptr noundef %2) local_unnamed_addr #1 {
  %4 = icmp ne ptr %1, null
  %5 = zext i1 %4 to i8
  tail call void @JPLISAssertCondition(i8 noundef zeroext %5, ptr noundef nonnull @.str.4, ptr noundef nonnull @.str.1, i32 noundef 131) #3
  %6 = load ptr, ptr %0, align 8
  %7 = getelementptr inbounds i8, ptr %6, i64 1824
  %8 = load ptr, ptr %7, align 8
  %9 = tail call zeroext i8 %8(ptr noundef nonnull %0) #3
  %.not.i = icmp eq i8 %9, 0
  %10 = zext i1 %.not.i to i8
  tail call void @JPLISAssertCondition(i8 noundef zeroext %10, ptr noundef nonnull @.str, ptr noundef nonnull @.str.1, i32 noundef 132) #3
  %11 = load ptr, ptr %0, align 8
  %12 = getelementptr inbounds i8, ptr %11, i64 48
  %13 = load ptr, ptr %12, align 8
  %14 = tail call ptr %13(ptr noundef nonnull %0, ptr noundef %1) #3
  %15 = load ptr, ptr %0, align 8
  %16 = getelementptr inbounds i8, ptr %15, i64 1824
  %17 = load ptr, ptr %16, align 8
  %18 = tail call zeroext i8 %17(ptr noundef nonnull %0) #3
  %.not.i28 = icmp eq i8 %18, 0
  br i1 %.not.i28, label %22, label %.thread

.thread:                                          ; preds = %3
  %19 = load ptr, ptr %0, align 8
  %20 = getelementptr inbounds i8, ptr %19, i64 136
  %21 = load ptr, ptr %20, align 8
  tail call void %21(ptr noundef nonnull %0) #3
  tail call void @JPLISAssertCondition(i8 noundef zeroext 0, ptr noundef nonnull @.str.5, ptr noundef nonnull @.str.1, i32 noundef 137) #3
  br label %49

22:                                               ; preds = %3
  tail call void @JPLISAssertCondition(i8 noundef zeroext 1, ptr noundef nonnull @.str.5, ptr noundef nonnull @.str.1, i32 noundef 137) #3
  %23 = load ptr, ptr %0, align 8
  %24 = getelementptr inbounds i8, ptr %23, i64 264
  %25 = load ptr, ptr %24, align 8
  %26 = tail call ptr %25(ptr noundef nonnull %0, ptr noundef %14, ptr noundef nonnull @.str.6, ptr noundef nonnull @.str.7) #3
  %27 = load ptr, ptr %0, align 8
  %28 = getelementptr inbounds i8, ptr %27, i64 1824
  %29 = load ptr, ptr %28, align 8
  %30 = tail call zeroext i8 %29(ptr noundef nonnull %0) #3
  %.not.i29 = icmp eq i8 %30, 0
  br i1 %.not.i29, label %35, label %31

31:                                               ; preds = %22
  %32 = load ptr, ptr %0, align 8
  %33 = getelementptr inbounds i8, ptr %32, i64 136
  %34 = load ptr, ptr %33, align 8
  tail call void %34(ptr noundef nonnull %0) #3
  tail call void @JPLISAssertCondition(i8 noundef zeroext 0, ptr noundef nonnull @.str.5, ptr noundef nonnull @.str.1, i32 noundef 145) #3
  br label %49

35:                                               ; preds = %22
  tail call void @JPLISAssertCondition(i8 noundef zeroext 1, ptr noundef nonnull @.str.5, ptr noundef nonnull @.str.1, i32 noundef 145) #3
  %36 = load ptr, ptr %0, align 8
  %37 = getelementptr inbounds i8, ptr %36, i64 224
  %38 = load ptr, ptr %37, align 8
  %39 = tail call ptr (ptr, ptr, ptr, ...) %38(ptr noundef nonnull %0, ptr noundef %14, ptr noundef %26, ptr noundef %2) #3
  %40 = load ptr, ptr %0, align 8
  %41 = getelementptr inbounds i8, ptr %40, i64 1824
  %42 = load ptr, ptr %41, align 8
  %43 = tail call zeroext i8 %42(ptr noundef nonnull %0) #3
  %.not.i31 = icmp eq i8 %43, 0
  br i1 %.not.i31, label %checkForAndClearThrowable.exit32, label %44

44:                                               ; preds = %35
  %45 = load ptr, ptr %0, align 8
  %46 = getelementptr inbounds i8, ptr %45, i64 136
  %47 = load ptr, ptr %46, align 8
  tail call void %47(ptr noundef nonnull %0) #3
  br label %checkForAndClearThrowable.exit32

checkForAndClearThrowable.exit32:                 ; preds = %35, %44
  %48 = zext i1 %.not.i31 to i8
  tail call void @JPLISAssertCondition(i8 noundef zeroext %48, ptr noundef nonnull @.str.5, ptr noundef nonnull @.str.1, i32 noundef 151) #3
  br label %49

49:                                               ; preds = %31, %.thread, %checkForAndClearThrowable.exit32
  %.023 = phi ptr [ null, %31 ], [ %39, %checkForAndClearThrowable.exit32 ], [ null, %.thread ]
  %50 = load ptr, ptr %0, align 8
  %51 = getelementptr inbounds i8, ptr %50, i64 1824
  %52 = load ptr, ptr %51, align 8
  %53 = tail call zeroext i8 %52(ptr noundef nonnull %0) #3
  %.not.i33 = icmp eq i8 %53, 0
  %54 = zext i1 %.not.i33 to i8
  tail call void @JPLISAssertCondition(i8 noundef zeroext %54, ptr noundef nonnull @.str, ptr noundef nonnull @.str.1, i32 noundef 154) #3
  ret ptr %.023
}